(dp0
S'vocab'
p1
(dp2
S' '
p3
I27
sS'?'
p4
I28
sS'a'
p5
I1
sS'c'
p6
I3
sS'b'
p7
I2
sS'e'
p8
I5
sS'd'
p9
I4
sS'g'
p10
I7
sS'f'
p11
I6
sS'i'
p12
I9
sS'h'
p13
I8
sS'k'
p14
I11
sS'j'
p15
I10
sS'm'
p16
I13
sS'l'
p17
I12
sS'o'
p18
I15
sS'n'
p19
I14
sS'q'
p20
I17
sS'p'
p21
I16
sS's'
p22
I19
sS'r'
p23
I18
sS'u'
p24
I21
sS't'
p25
I20
sS'w'
p26
I23
sS'v'
p27
I22
sS'y'
p28
I25
sS'x'
p29
I24
sS'z'
p30
I26
ssS'classes'
p31
(lp32
S'cars'
p33
aS'goodbye'
p34
aS'greeting'
p35
aS'hours'
p36
aS'opentoday'
p37
aS'payments'
p38
aS'rental'
p39
aS'thanks'
p40
asS'answers'
p41
(dp42
S'cars'
p43
(lp44
S'We have cars for rent'
p45
asS'opentoday'
p46
(lp47
S'Today we are open till 5pm'
p48
aS'We are open till 5pm'
p49
asS'greeting'
p50
(lp51
S'Hi'
p52
aS'Hello'
p53
asS'hours'
p54
(lp55
S'The shop is open from 8am to 5pm everyday'
p56
asS'payments'
p57
(lp58
S'You can pay with cash, visa or mastercard'
p59
asS'goodbye'
p60
(lp61
S'Bye'
p62
aS'Goodbye'
p63
asS'rental'
p64
(lp65
S'In order to open a car you need to sign a contract'
p66
aS'A cantract need to be made in order to get a car'
p67
asS'thanks'
p68
(lp69
S'we are welcome'
p70
aS'welcome'
p71
ass.